; Function Attrs: mustprogress nofree norecurse nounwind willreturn memory(readwrite, inaccessiblemem: none) uwtable
define void @_ZN32pxrInternal_v0_24__pxrReserved__7HdBprimC2ERKNS_7SdfPathE(ptr noundef nonnull writeonly align 8 captures(none) dereferenceable(16) initializes((0, 16)) %0, ptr noundef nonnull readonly align 4 captures(none) dereferenceable(8) %1) unnamed_addr #0 align 2 personality ptr @__gxx_personality_v0 {
  store ptr getelementptr inbounds nuw inrange(-16, 40) (i8, ptr @_ZTVN32pxrInternal_v0_24__pxrReserved__7HdBprimE, i64 16), ptr %0, align 8
  %3 = getelementptr inbounds nuw i8, ptr %0, i64 8
  %4 = load i32, ptr %1, align 4
  store i32 %4, ptr %3, align 8
  %.not.i.i = icmp eq i32 %4, 0
  br i1 %.not.i.i, label %_ZN32pxrInternal_v0_24__pxrReserved__7SdfPathC2ERKS0_.exit, label %5

5:                                                ; preds = %2
  %6 = and i32 %4, 255
  %7 = lshr i32 %4, 8
  %8 = zext nneg i32 %6 to i64
  %9 = getelementptr inbounds nuw [257 x ptr], ptr @_ZN32pxrInternal_v0_24__pxrReserved__8Sdf_PoolINS_15Sdf_PathPrimTagELj24ELj8ELj16384EE13_regionStartsE, i64 0, i64 %8
  %10 = load ptr, ptr %9, align 8
  %11 = mul nuw nsw i32 %7, 24
  %12 = zext nneg i32 %11 to i64
  %13 = getelementptr inbounds nuw i8, ptr %10, i64 %12
  %14 = getelementptr inbounds nuw i8, ptr %13, i64 8
  %15 = atomicrmw add ptr %14, i32 1 monotonic, align 4
  br label %_ZN32pxrInternal_v0_24__pxrReserved__7SdfPathC2ERKS0_.exit

_ZN32pxrInternal_v0_24__pxrReserved__7SdfPathC2ERKS0_.exit: ; preds = %2, %5
  %16 = getelementptr inbounds nuw i8, ptr %0, i64 12
  %17 = getelementptr inbounds nuw i8, ptr %1, i64 4
  %18 = load i32, ptr %17, align 4
  store i32 %18, ptr %16, align 4
  ret void
}